; Function Attrs: nofree norecurse nosync nounwind memory(argmem: readwrite) uwtable
define internal void @spatial_compensation_4(ptr noalias noundef readonly captures(none) %0, ptr noalias noundef writeonly captures(none) %1, i64 noundef %2) #1 {
  br label %.preheader

.preheader:                                       ; preds = %3, %17
  %.015 = phi i32 [ 0, %3 ], [ %19, %17 ]
  %.01214 = phi ptr [ %1, %3 ], [ %18, %17 ]
  br label %4

4:                                                ; preds = %.preheader, %4
  %indvars.iv = phi i64 [ 0, %.preheader ], [ %indvars.iv.next, %4 ]
  %5 = getelementptr inbounds nuw i8, ptr %0, i64 %indvars.iv
  %6 = getelementptr inbounds nuw i8, ptr %5, i64 17
  %7 = load i8, ptr %6, align 1, !tbaa !14
  %8 = zext i8 %7 to i16
  %9 = getelementptr inbounds nuw i8, ptr %5, i64 33
  %10 = load i8, ptr %9, align 1, !tbaa !14
  %11 = zext i8 %10 to i16
  %12 = add nuw nsw i16 %8, 1
  %13 = add nuw nsw i16 %12, %11
  %14 = lshr i16 %13, 1
  %15 = trunc nuw i16 %14 to i8
  %16 = getelementptr inbounds nuw i8, ptr %.01214, i64 %indvars.iv
  store i8 %15, ptr %16, align 1, !tbaa !14
  %indvars.iv.next = add nuw nsw i64 %indvars.iv, 1
  %exitcond.not = icmp eq i64 %indvars.iv.next, 8
  br i1 %exitcond.not, label %17, label %4, !llvm.loop !34

17:                                               ; preds = %4
  %18 = getelementptr inbounds i8, ptr %.01214, i64 %2
  %19 = add nuw nsw i32 %.015, 1
  %exitcond17.not = icmp eq i32 %19, 8
  br i1 %exitcond17.not, label %20, label %.preheader, !llvm.loop !35

20:                                               ; preds = %17
  ret void
}